EXPORTS
 "_VCGSS_mmax"
 "_VCGSS_mmin"
 "_VCGSS_mySample"
 "_VCGSS_rInvGauss"
 "_VCGSS_rmnorm"
 "_VCGSS_rmnormSvd"
 "_VCGSS_rmnormSvd2"
 "_VCGSS_sampleInt"
 "_VCGSS_ssVcmCpp"
 "_VCGSS_sumlogs"
 "_VCGSS_vcmCpp"
 "_Z14make_conditionRKNSt7__cxx1112basic_stringIcSt11char_traitsIcESaIcEEEP7SEXPRECS8_S8_"
 "_Z19string_to_try_errorRKNSt7__cxx1112basic_stringIcSt11char_traitsIcESaIcEEE"
 "_Z29rcpp_exception_to_r_conditionRKN4Rcpp9exceptionE"
 "_Z31exception_to_condition_templateIN4Rcpp9exceptionEEP7SEXPRECRKT_b"
 "_Z31exception_to_condition_templateISt9exceptionEP7SEXPRECRKT_b"
 "_ZGVN4arma5DatumIdE3nanE"
 "_ZGVZ20rcpp_get_stack_tracevE3fun"
 "_ZGVZ20rcpp_set_stack_traceP7SEXPRECE3fun"
 "_ZGVZ7dataptrP7SEXPRECE3fun"
 "_ZGVZ8demangleRKNSt7__cxx1112basic_stringIcSt11char_traitsIcESaIcEEEE3funB5cxx11"
 "_ZGVZN4Rcpp20Rcpp_precious_removeEP7SEXPRECE3fun"
 "_ZGVZN4Rcpp22Rcpp_precious_preserveEP7SEXPRECE3fun"
 "_ZGVZN4Rcpp8internal12exitRNGScopeEvE3fun"
 "_ZGVZN4Rcpp8internal13enterRNGScopeEvE3fun"
 "_ZN10tinyformat6detail10formatImplERSoPKcPKNS0_9FormatArgEi"
 "_ZN10tinyformat6detail15formatTruncatedIiEEvRSoRKT_i"
 "_ZN10tinyformat6detail21streamStateFromFormatERSoRbRiPKcPKNS0_9FormatArgES3_i"
 "_ZN10tinyformat6detail9FormatArg10formatImplIiEEvRSoPKcS5_iPKv"
 "_ZN10tinyformat6detail9FormatArg10formatImplIPKcEEvRSoS4_S4_iPKv"
 "_ZN10tinyformat6detail9FormatArg9toIntImplIiEEiPKv"
 "_ZN10tinyformat6detail9FormatArg9toIntImplIPKcEEiPKv"
 "_ZN10tinyformat6formatIJiEEENSt7__cxx1112basic_stringIcSt11char_traitsIcESaIcEEEPKcDpRKT_"
 "_ZN10tinyformat6formatIJPKcEEENSt7__cxx1112basic_stringIcSt11char_traitsIcESaIcEEES2_DpRKT_"
 "_ZN10tinyformat6formatIJPKciEEENSt7__cxx1112basic_stringIcSt11char_traitsIcESaIcEEES2_DpRKT_"
 "_ZN10tinyformat6formatIJPKcS2_EEENSt7__cxx1112basic_stringIcSt11char_traitsIcESaIcEEES2_DpRKT_"
 "_ZN4arma5DatumIdE3nanE"
 "_ZN4Rcpp10RstreambufILb0EE4syncEv"
 "_ZN4Rcpp10RstreambufILb0EE6xsputnEPKcx"
 "_ZN4Rcpp10RstreambufILb0EE8overflowEi"
 "_ZN4Rcpp10RstreambufILb0EED0Ev"
 "_ZN4Rcpp10RstreambufILb0EED1Ev"
 "_ZN4Rcpp10RstreambufILb1EE4syncEv"
 "_ZN4Rcpp10RstreambufILb1EE6xsputnEPKcx"
 "_ZN4Rcpp10RstreambufILb1EE8overflowEi"
 "_ZN4Rcpp10RstreambufILb1EED0Ev"
 "_ZN4Rcpp10RstreambufILb1EED1Ev"
 "_ZN4Rcpp12not_a_matrixD0Ev"
 "_ZN4Rcpp12not_a_matrixD1Ev"
 "_ZN4Rcpp13RcppArmadillo9arma_wrapIN4arma3ColIdEEEEP7SEXPRECRKT_RKNS_9DimensionE"
 "_ZN4Rcpp13unwindProtectEPFP7SEXPRECPvES2_"
 "_ZN4Rcpp14not_compatibleC1IJiEEEPKcDpOT_"
 "_ZN4Rcpp14not_compatibleC1IJPKciEEES3_DpOT_"
 "_ZN4Rcpp14not_compatibleC1IJPKcS3_EEES3_DpOT_"
 "_ZN4Rcpp14not_compatibleD0Ev"
 "_ZN4Rcpp14not_compatibleD1Ev"
 "_ZN4Rcpp20Rcpp_precious_removeEP7SEXPREC"
 "_ZN4Rcpp4stopERKNSt7__cxx1112basic_stringIcSt11char_traitsIcESaIcEEE"
 "_ZN4Rcpp4wrapIdEEP7SEXPRECRKN4arma3ColIT_EE"
 "_ZN4Rcpp6ShieldIP7SEXPRECED1Ev"
 "_ZN4Rcpp6traits14MatrixExporterIN4arma3MatIdEEdE3getEv"
 "_ZN4Rcpp6traits16IndexingExporterIN4arma3ColIdEEdE3getEv"
 "_ZN4Rcpp8internal10basic_castILi13EEEP7SEXPRECS3_"
 "_ZN4Rcpp8internal10basic_castILi14EEEP7SEXPRECS3_"
 "_ZN4Rcpp8internal10resumeJumpEP7SEXPREC"
 "_ZN4Rcpp8internal11r_true_castILi16EEEP7SEXPRECS3_"
 "_ZN4Rcpp8internal12primitive_asIdEET_P7SEXPREC"
 "_ZN4Rcpp8internal12primitive_asIiEET_P7SEXPREC"
 "_ZN4Rcpp8internal17is_Rcpp_eval_callEP7SEXPREC"
 "_ZN4Rcpp8internal19Rcpp_protected_evalEPv"
 "_ZN4Rcpp8internal3nthEP7SEXPRECi"
 "_ZN4Rcpp8internal9maybeJumpEPv8Rboolean"
 "_ZN4Rcpp8RostreamILb0EED0Ev"
 "_ZN4Rcpp8RostreamILb0EED1Ev"
 "_ZN4Rcpp8RostreamILb1EED0Ev"
 "_ZN4Rcpp8RostreamILb1EED1Ev"
 "_ZN4Rcpp9exceptionC1EPKcb"
 "_ZN4Rcpp9exceptionD0Ev"
 "_ZN4Rcpp9exceptionD1Ev"
 "_ZNK4Rcpp12not_a_matrix4whatEv"
 "_ZNK4Rcpp14not_compatible4whatEv"
 "_ZNK4Rcpp9exception21copy_stack_trace_to_rEv"
 "_ZNK4Rcpp9exception4whatEv"
 "_ZNKSt5ctypeIcE8do_widenEc"
 "_ZNSt7__cxx1115basic_stringbufIcSt11char_traitsIcESaIcEED1Ev"
 "_ZTCN4Rcpp8RostreamILb0EEE0_So"
 "_ZTCN4Rcpp8RostreamILb1EEE0_So"
 "_ZTIN4Rcpp10eval_errorE"
 "_ZTIN4Rcpp10RstreambufILb0EEE"
 "_ZTIN4Rcpp10RstreambufILb1EEE"
 "_ZTIN4Rcpp12not_a_matrixE"
 "_ZTIN4Rcpp14not_compatibleE"
 "_ZTIN4Rcpp17LongjumpExceptionE"
 "_ZTIN4Rcpp8internal20InterruptedExceptionE"
 "_ZTIN4Rcpp8RostreamILb0EEE"
 "_ZTIN4Rcpp8RostreamILb1EEE"
 "_ZTIN4Rcpp9exceptionE"
 "_ZTISt11logic_error"
 "_ZTISt9bad_alloc"
 "_ZTISt9exception"
 "_ZTSN4Rcpp10eval_errorE"
 "_ZTSN4Rcpp10RstreambufILb0EEE"
 "_ZTSN4Rcpp10RstreambufILb1EEE"
 "_ZTSN4Rcpp12not_a_matrixE"
 "_ZTSN4Rcpp14not_compatibleE"
 "_ZTSN4Rcpp17LongjumpExceptionE"
 "_ZTSN4Rcpp8internal20InterruptedExceptionE"
 "_ZTSN4Rcpp8RostreamILb0EEE"
 "_ZTSN4Rcpp8RostreamILb1EEE"
 "_ZTSN4Rcpp9exceptionE"
 "_ZTSSt11logic_error"
 "_ZTSSt9bad_alloc"
 "_ZTSSt9exception"
 "_ZTTN4Rcpp8RostreamILb0EEE"
 "_ZTTN4Rcpp8RostreamILb1EEE"
 "_ZTv0_n24_N4Rcpp8RostreamILb0EED0Ev"
 "_ZTv0_n24_N4Rcpp8RostreamILb0EED1Ev"
 "_ZTv0_n24_N4Rcpp8RostreamILb1EED0Ev"
 "_ZTv0_n24_N4Rcpp8RostreamILb1EED1Ev"
 "_ZTVN4Rcpp10RstreambufILb0EEE"
 "_ZTVN4Rcpp10RstreambufILb1EEE"
 "_ZTVN4Rcpp12not_a_matrixE"
 "_ZTVN4Rcpp14not_compatibleE"
 "_ZTVN4Rcpp8RostreamILb0EEE"
 "_ZTVN4Rcpp8RostreamILb1EEE"
 "_ZTVN4Rcpp9exceptionE"
 "_ZZ20rcpp_get_stack_tracevE3fun"
 "_ZZ20rcpp_set_stack_traceP7SEXPRECE3fun"
 "_ZZ7dataptrP7SEXPRECE3fun"
 "_ZZ8demangleRKNSt7__cxx1112basic_stringIcSt11char_traitsIcESaIcEEEE3funB5cxx11"
 "_ZZN4Rcpp20Rcpp_precious_removeEP7SEXPRECE3fun"
 "_ZZN4Rcpp22Rcpp_precious_preserveEP7SEXPRECE3fun"
 "_ZZN4Rcpp8internal12exitRNGScopeEvE3fun"
 "_ZZN4Rcpp8internal13enterRNGScopeEvE3fun"
 "R_init_VCGSS"
 ".gomp_critical_user_arma_Cube_mat_ptrs"
 "_Z10rmnormSvd2N4arma3ColIdEENS_3MatIdEES1_"
 "_Z4mmaxdd"
 "_Z4mmindd"
 "_Z6rmnormN4arma3ColIdEENS_3MatIdEE"
 "_Z6vcmCppN4arma3MatIdEES1_N4Rcpp6VectorILi19ENS2_15PreserveStorageEEES5_NSt7__cxx1112basic_stringIcSt11char_traitsIcESaIcEEE"
 "_Z7dataptrP7SEXPREC"
 "_Z7sumlogsdd"
 "_Z8mySampleN4Rcpp6VectorILi13ENS_15PreserveStorageEEEi"
 "_Z8ssVcmCppN4arma3MatIdEES1_N4Rcpp6VectorILi19ENS2_15PreserveStorageEEES5_NSt7__cxx1112basic_stringIcSt11char_traitsIcESaIcEEE"
 "_Z9rInvGaussdd"
 "_Z9rmnormSvdN4arma3ColIdEES1_NS_3MatIdEES1_"
 "_Z9sampleIntiii"
 "_ZGVN4arma5DatumIdE3nanE"
 "_ZGVZ7dataptrP7SEXPRECE3fun"
 "_ZGVZN4Rcpp20Rcpp_precious_removeEP7SEXPRECE3fun"
 "_ZGVZN4Rcpp22Rcpp_precious_preserveEP7SEXPRECE3fun"
 "_ZN10tinyformat6detail10formatImplERSoPKcPKNS0_9FormatArgEi"
 "_ZN10tinyformat6detail15formatTruncatedIiEEvRSoRKT_i"
 "_ZN10tinyformat6detail15formatTruncatedINSt7__cxx1112basic_stringIcSt11char_traitsIcESaIcEEEEEvRSoRKT_i"
 "_ZN10tinyformat6detail15formatTruncatedIxEEvRSoRKT_i"
 "_ZN10tinyformat6detail21streamStateFromFormatERSoRbRiPKcPKNS0_9FormatArgES3_i"
 "_ZN10tinyformat6detail9FormatArg10formatImplIiEEvRSoPKcS5_iPKv"
 "_ZN10tinyformat6detail9FormatArg10formatImplINSt7__cxx1112basic_stringIcSt11char_traitsIcESaIcEEEEEvRSoPKcSB_iPKv"
 "_ZN10tinyformat6detail9FormatArg10formatImplIPKcEEvRSoS4_S4_iPKv"
 "_ZN10tinyformat6detail9FormatArg10formatImplIxEEvRSoPKcS5_iPKv"
 "_ZN10tinyformat6detail9FormatArg9toIntImplIiEEiPKv"
 "_ZN10tinyformat6detail9FormatArg9toIntImplINSt7__cxx1112basic_stringIcSt11char_traitsIcESaIcEEEEEiPKv"
 "_ZN10tinyformat6detail9FormatArg9toIntImplIPKcEEiPKv"
 "_ZN10tinyformat6detail9FormatArg9toIntImplIxEEiPKv"
 "_ZN10tinyformat6formatIJEEENSt7__cxx1112basic_stringIcSt11char_traitsIcESaIcEEEPKcDpRKT_"
 "_ZN10tinyformat6formatIJiEEENSt7__cxx1112basic_stringIcSt11char_traitsIcESaIcEEEPKcDpRKT_"
 "_ZN10tinyformat6formatIJNSt7__cxx1112basic_stringIcSt11char_traitsIcESaIcEEEEEES6_PKcDpRKT_"
 "_ZN10tinyformat6formatIJPKcS2_EEENSt7__cxx1112basic_stringIcSt11char_traitsIcESaIcEEES2_DpRKT_"
 "_ZN10tinyformat6formatIJxxEEENSt7__cxx1112basic_stringIcSt11char_traitsIcESaIcEEEPKcDpRKT_"
 "_ZN4arma10glue_times18apply_inplace_plusINS_3MatIdEENS_11subview_colIdEEEEvRNS2_INT_9elem_typeEEERKNS_4GlueIS6_T0_S0_EEi"
 "_ZN4arma10glue_times5applyIdLb0ELb0ELb1ENS_3MatIdEENS_3ColIdEEEEvRNS2_IT_EERKT3_RKT4_S6_"
 "_ZN4arma10glue_times5applyIdLb0ELb0ELb1ENS_3MatIdEES3_EEvRNS2_IT_EERKT3_RKT4_S4_"
 "_ZN4arma10glue_times5applyIdLb1ELb0ELb0ELb1ENS_3ColIdEENS_3MatIdEES3_EEvRNS4_IT_EERKT4_RKT5_RKT6_S6_"
 "_ZN4arma13accu_proxy_atINS_3eOpINS_7subviewIdEENS_7eop_powEEEEENT_9elem_typeERKNS_5ProxyIS6_EE"
 "_ZN4arma13accu_proxy_atINS_5eGlueINS_7subviewIdEES3_NS_11eglue_schurEEEEENT_9elem_typeERKNS_5ProxyIS6_EE"
 "_ZN4arma16gemv_emul_tinysqILb0ELb1ELb1EE5applyIdNS_3MatIdEEEEvPT_RKT0_PKS5_S5_S5_"
 "_ZN4arma16gemv_emul_tinysqILb1ELb1ELb1EE5applyIdNS_3ColIdEEEEvPT_RKT0_PKS5_S5_S5_"
 "_ZN4arma22arma_sort_index_helperINS_3ColIdEELb0EEEbRNS_3MatIjEERKNS_5ProxyIT_EEj"
 "_ZN4arma27glue_times_redirect2_helperILb0EE5applyINS_11subview_rowIdEENS_11subview_colIdEEEEvRNS_3MatINT_9elem_typeEEERKNS_4GlueIS8_T0_NS_10glue_timesEEE"
 "_ZN4arma27glue_times_redirect3_helperILb0EE5applyINS_2OpINS_11subview_colIdEENS_9op_htransEEENS_3MatIdEES5_EEvRNS8_INT_9elem_typeEEERKNS_4GlueINSE_ISA_T0_NS_10glue_timesEEET1_SG_EE"
 "_ZN4arma27glue_times_redirect3_helperILb0EE5applyINS_2OpINS_11subview_colIdEENS_9op_htransEEENS_5eGlueINS_4GlueINS9_INS3_INS_3MatIdEES6_EENS3_IS5_NS_10op_diagmatEEENS_15glue_times_diagEEESB_NS_10glue_timesEEENS_3eOpINS3_INS_3ColIdEESD_EENS_16eop_scalar_timesEEENS_10eglue_plusEEES5_EEvRNSA_INT_9elem_typeEEERKNS9_INS9_ISR_T0_SH_EET1_SH_EE"
 "_ZN4arma3ColIdEC1Ej"
 "_ZN4arma3ColIdEC1INS_3GenIS1_NS_8gen_onesEEEEERKNS_4BaseIdT_EE"
 "_ZN4arma3MatIdE10soft_resetEv"
 "_ZN4arma3MatIdE5resetEv"
 "_ZN4arma3MatIdE9init_coldEv"
 "_ZN4arma3MatIdE9init_warmEjj"
 "_ZN4arma3MatIdE9steal_memERS1_b"
 "_ZN4arma3MatIdEC1Ejj"
 "_ZN4arma3MatIdEC1ERKS1_"
 "_ZN4arma3MatIdEC1INS_3ColIdEENS_10op_diagmatEEERKNS_2OpIT_T0_EE"
 "_ZN4arma3MatIdEC1INS_3ColIdEENS_11op_diagmat2EEERKNS_2OpIT_T0_EE"
 "_ZN4arma3MatIjE9init_warmEjj"
 "_ZN4arma4CubeIdE5sliceEj"
 "_ZN4arma4CubeIdEC1Ejjj"
 "_ZN4arma4CubeIdED1Ev"
 "_ZN4arma5DatumIdE3nanE"
 "_ZN4arma5ProxyINS_2OpINS_3ColIdEENS_11op_diagmat2EEEED1Ev"
 "_ZN4arma5ProxyINS_4GlueINS_3eOpINS_3MatIdEENS_16eop_scalar_timesEEENS_3ColIdEENS_10glue_timesEEEED1Ev"
 "_ZN4arma5ProxyINS_4GlueINS_3MatIdEENS_11subview_colIdEENS_10glue_timesEEEED1Ev"
 "_ZN4arma5ProxyINS_4GlueINS_3MatIdEENS_3ColIdEENS_10glue_timesEEEED1Ev"
 "_ZN4arma5ProxyINS_4GlueINS1_INS_2OpINS_3MatIdEENS_9op_htransEEENS2_INS_11subview_colIdEENS_10op_diagmatEEENS_15glue_times_diagEEES4_NS_10glue_timesEEEED1Ev"
 "_ZN4arma5ProxyINS_4GlueINS1_INS_3MatIdEES3_NS_10glue_timesEEENS_11subview_colIdEES4_EEED1Ev"
 "_ZN4arma5ProxyINS_4GlueINS1_INS_3MatIdEES3_NS_10glue_timesEEENS_2OpINS_11subview_rowIdEENS_9op_htransEEES4_EEED1Ev"
 "_ZN4arma5ProxyINS_4GlueINS1_INS_3MatIdEES3_NS_10glue_timesEEENS_3ColIdEES4_EEED1Ev"
 "_ZN4arma6auxlib16chol_band_commonIdEEbRNS_3MatIT_EEjj"
 "_ZN4arma6auxlib3detIdEEbRT_RNS_3MatIS2_EE"
 "_ZN4arma6auxlib3invIdEEbRNS_3MatIT_EE"
 "_ZN4arma6auxlib9inv_sympdIdEEbRNS_3MatIT_EERb"
 "_ZN4arma6op_det12apply_directINS_3MatIdEEEEbRNT_9elem_typeERKNS_4BaseIS5_S4_EE"
 "_ZN4arma6op_sum19apply_noalias_proxyINS_3eOpINS_3MatIdEENS_7eop_powEEEEEvRNS3_INT_9elem_typeEEERKNS_5ProxyIS7_EEj"
 "_ZN4arma7subviewIdE10inplace_opINS_15op_internal_equENS_2OpINS_11subview_colIdEENS_9op_htransEEEEEvRKNS_4BaseIdT0_EEPKc"
 "_ZN4arma7subviewIdE10inplace_opINS_15op_internal_equENS_2OpINS_3ColIdEENS_9op_htransEEEEEvRKNS_4BaseIdT0_EEPKc"
 "_ZN4arma7subviewIdE10inplace_opINS_15op_internal_equENS_5eGlueINS4_INS4_INS_3eOpINS_2OpINS_11subview_rowIdEENS_9op_htransEEENS_21eop_scalar_minus_postEEENS_4GlueINS_3MatIdEENS_3ColIdEENS_10glue_timesEEENS_11eglue_minusEEESH_SK_EENSD_INSD_ISF_SF_SI_EESA_SI_EESK_EEEEvRKNS_4BaseIdT0_EEPKc"
 "_ZN4arma7subviewIdE7extractERNS_3MatIdEERKS1_"
 "_ZN4arma8arma_rng5randnIdE4fillEPdj"
 "_ZN4arma9op_strans12apply_directINS_2OpINS_3eOpINS_3MatIdEENS_7eop_powEEENS_6op_sumEEEEEvRNS4_INT_9elem_typeEEERKSA_"
 "_ZN4arma9op_strans12apply_directINS_2OpINS_3MatIdEENS_6op_sumEEEEEvRNS3_INT_9elem_typeEEERKS7_"
 "_ZN4arma9op_strans17apply_mat_noaliasIdNS_3MatIdEEEEvRNS2_IT_EERKT0_"
 "_ZN4arma9op_trimat12apply_unwrapIdEEvRNS_3MatIT_EERKS4_b"
 "_ZN4Rcpp10RstreambufILb0EE4syncEv"
 "_ZN4Rcpp10RstreambufILb0EE6xsputnEPKcx"
 "_ZN4Rcpp10RstreambufILb0EE8overflowEi"
 "_ZN4Rcpp10RstreambufILb0EED0Ev"
 "_ZN4Rcpp10RstreambufILb0EED1Ev"
 "_ZN4Rcpp10RstreambufILb1EE4syncEv"
 "_ZN4Rcpp10RstreambufILb1EE6xsputnEPKcx"
 "_ZN4Rcpp10RstreambufILb1EE8overflowEi"
 "_ZN4Rcpp10RstreambufILb1EED0Ev"
 "_ZN4Rcpp10RstreambufILb1EED1Ev"
 "_ZN4Rcpp12not_a_matrixD0Ev"
 "_ZN4Rcpp12not_a_matrixD1Ev"
 "_ZN4Rcpp13RcppArmadillo11sample_mainINS_6VectorILi13ENS_15PreserveStorageEEEEET_RKS5_ibRKN4arma3ColIdEE"
 "_ZN4Rcpp13RcppArmadillo13SampleReplaceERN4arma3ColIjEEii"
 "_ZN4Rcpp13RcppArmadillo15SampleNoReplaceERN4arma3ColIjEEii"
 "_ZN4Rcpp13RcppArmadillo17ProbSampleReplaceERN4arma3ColIjEEiiRNS2_IdEE"
 "_ZN4Rcpp13RcppArmadillo19ProbSampleNoReplaceERN4arma3ColIjEEiiRNS2_IdEE"
 "_ZN4Rcpp13RcppArmadillo23WalkerProbSampleReplaceERN4arma3ColIjEEiiRNS2_IdEE"
 "_ZN4Rcpp13RcppArmadillo6sampleINS_6VectorILi13ENS_15PreserveStorageEEEEET_RKS5_ibNS2_ILi14ES3_EE"
 "_ZN4Rcpp13RcppArmadillo7FixProbERN4arma3ColIdEEib"
 "_ZN4Rcpp13RcppArmadillo9arma_wrapIN4arma3ColIdEEEEP7SEXPRECRKT_RKNS_9DimensionE"
 "_ZN4Rcpp14not_compatibleC1IJiEEEPKcDpOT_"
 "_ZN4Rcpp14not_compatibleC1IJPKcS3_EEES3_DpOT_"
 "_ZN4Rcpp14not_compatibleD0Ev"
 "_ZN4Rcpp14not_compatibleD1Ev"
 "_ZN4Rcpp19index_out_of_boundsC1IJEEEPKcDpOT_"
 "_ZN4Rcpp19index_out_of_boundsC1IJRKNSt7__cxx1112basic_stringIcSt11char_traitsIcESaIcEEEEEEPKcDpOT_"
 "_ZN4Rcpp19index_out_of_boundsC1IJRKxxEEEPKcDpOT_"
 "_ZN4Rcpp19index_out_of_boundsD0Ev"
 "_ZN4Rcpp19index_out_of_boundsD1Ev"
 "_ZN4Rcpp20Rcpp_precious_removeEP7SEXPREC"
 "_ZN4Rcpp4stopERKNSt7__cxx1112basic_stringIcSt11char_traitsIcESaIcEEE"
 "_ZN4Rcpp4wrapIdEEP7SEXPRECRKN4arma4CubeIT_EE"
 "_ZN4Rcpp6ShieldIP7SEXPRECED1Ev"
 "_ZN4Rcpp6traits14MatrixExporterIN4arma3MatIdEEdE3getEv"
 "_ZN4Rcpp6traits8ExporterIN4arma4CubeIdEEE3getEv"
 "_ZN4Rcpp6VectorILi13ENS_15PreserveStorageEEC1ILb0ENS_5RangeEEERKNS_10VectorBaseILi13EXT_ET0_EE"
 "_ZN4Rcpp6VectorILi14ENS_15PreserveStorageEEC1ERKNS_9DimensionE"
 "_ZN4Rcpp8internal10basic_castILi13EEEP7SEXPRECS3_"
 "_ZN4Rcpp8internal10basic_castILi14EEEP7SEXPRECS3_"
 "_ZN4Rcpp8internal12primitive_asIdEET_P7SEXPREC"
 "_ZN4Rcpp8internal12primitive_asIiEET_P7SEXPREC"
 "_ZN4Rcpp8RostreamILb0EED0Ev"
 "_ZN4Rcpp8RostreamILb0EED1Ev"
 "_ZN4Rcpp8RostreamILb1EED0Ev"
 "_ZN4Rcpp8RostreamILb1EED1Ev"
 "_ZN4Rcpp9exceptionC1EPKcb"
 "_ZN4Rcpp9exceptionD0Ev"
 "_ZN4Rcpp9exceptionD1Ev"
 "_ZNK4Rcpp12not_a_matrix4whatEv"
 "_ZNK4Rcpp14not_compatible4whatEv"
 "_ZNK4Rcpp19index_out_of_bounds4whatEv"
 "_ZNK4Rcpp8internal18generic_name_proxyILi19ENS_15PreserveStorageEEcvT_IdEEv"
 "_ZNK4Rcpp8internal18generic_name_proxyILi19ENS_15PreserveStorageEEcvT_IiEEv"
 "_ZNK4Rcpp8internal18generic_name_proxyILi19ENS_15PreserveStorageEEcvT_IN4arma3ColIdEEEEv"
 "_ZNK4Rcpp8internal18generic_name_proxyILi19ENS_15PreserveStorageEEcvT_IN4arma3MatIdEEEEv"
 "_ZNK4Rcpp9exception4whatEv"
 "_ZNKSt5ctypeIcE8do_widenEc"
 "_ZNSt19normal_distributionIdEclISt23mersenne_twister_engineIyLy64ELy312ELy156ELy31ELy13043109905998158313ELy29ELy6148914691236517205ELy17ELy8202884508482404352ELy37ELy18444473444759240704ELy43ELy6364136223846793005EEEEdRT_RKNS0_10param_typeE"
 "_ZNSt23mersenne_twister_engineIyLy64ELy312ELy156ELy31ELy13043109905998158313ELy29ELy6148914691236517205ELy17ELy8202884508482404352ELy37ELy18444473444759240704ELy43ELy6364136223846793005EE11_M_gen_randEv"
 "_ZNSt7__cxx1115basic_stringbufIcSt11char_traitsIcESaIcEED1Ev"
 "_ZSt16__introsort_loopIN9__gnu_cxx17__normal_iteratorIPN4arma22arma_sort_index_packetIdEESt6vectorIS4_SaIS4_EEEExNS0_5__ops15_Iter_comp_iterINS2_29arma_sort_index_helper_ascendIdEEEEEvT_SF_T0_T1_"
 "_ZSt16__introsort_loopIN9__gnu_cxx17__normal_iteratorIPN4arma22arma_sort_index_packetIdEESt6vectorIS4_SaIS4_EEEExNS0_5__ops15_Iter_comp_iterINS2_30arma_sort_index_helper_descendIdEEEEEvT_SF_T0_T1_"
 "_ZSt16__introsort_loopIPdxN9__gnu_cxx5__ops15_Iter_comp_iterIN4arma18arma_gt_comparatorIdEEEEEvT_S8_T0_T1_"
 "_ZSt18generate_canonicalIdLy53ESt23mersenne_twister_engineIyLy64ELy312ELy156ELy31ELy13043109905998158313ELy29ELy6148914691236517205ELy17ELy8202884508482404352ELy37ELy18444473444759240704ELy43ELy6364136223846793005EEET_RT1_"
 "_ZTCN4Rcpp8RostreamILb0EEE0_So"
 "_ZTCN4Rcpp8RostreamILb1EEE0_So"
 "_ZTIN4Rcpp10RstreambufILb0EEE"
 "_ZTIN4Rcpp10RstreambufILb1EEE"
 "_ZTIN4Rcpp12not_a_matrixE"
 "_ZTIN4Rcpp14not_compatibleE"
 "_ZTIN4Rcpp19index_out_of_boundsE"
 "_ZTIN4Rcpp8RostreamILb0EEE"
 "_ZTIN4Rcpp8RostreamILb1EEE"
 "_ZTIN4Rcpp9exceptionE"
 "_ZTISt11logic_error"
 "_ZTISt11range_error"
 "_ZTISt12out_of_range"
 "_ZTISt13runtime_error"
 "_ZTISt9bad_alloc"
 "_ZTISt9exception"
 "_ZTSN4Rcpp10RstreambufILb0EEE"
 "_ZTSN4Rcpp10RstreambufILb1EEE"
 "_ZTSN4Rcpp12not_a_matrixE"
 "_ZTSN4Rcpp14not_compatibleE"
 "_ZTSN4Rcpp19index_out_of_boundsE"
 "_ZTSN4Rcpp8RostreamILb0EEE"
 "_ZTSN4Rcpp8RostreamILb1EEE"
 "_ZTSN4Rcpp9exceptionE"
 "_ZTSSt11logic_error"
 "_ZTSSt11range_error"
 "_ZTSSt12out_of_range"
 "_ZTSSt13runtime_error"
 "_ZTSSt9bad_alloc"
 "_ZTSSt9exception"
 "_ZTTN4Rcpp8RostreamILb0EEE"
 "_ZTTN4Rcpp8RostreamILb1EEE"
 "_ZTv0_n24_N4Rcpp8RostreamILb0EED0Ev"
 "_ZTv0_n24_N4Rcpp8RostreamILb0EED1Ev"
 "_ZTv0_n24_N4Rcpp8RostreamILb1EED0Ev"
 "_ZTv0_n24_N4Rcpp8RostreamILb1EED1Ev"
 "_ZTVN4Rcpp10RstreambufILb0EEE"
 "_ZTVN4Rcpp10RstreambufILb1EEE"
 "_ZTVN4Rcpp12not_a_matrixE"
 "_ZTVN4Rcpp14not_compatibleE"
 "_ZTVN4Rcpp19index_out_of_boundsE"
 "_ZTVN4Rcpp8RostreamILb0EEE"
 "_ZTVN4Rcpp8RostreamILb1EEE"
 "_ZTVN4Rcpp9exceptionE"
 "_ZZ7dataptrP7SEXPRECE3fun"
 "_ZZN4arma16arma_cerr_streamIcEERSoPSoE11cerr_stream"
 "_ZZN4Rcpp20Rcpp_precious_removeEP7SEXPRECE3fun"
 "_ZZN4Rcpp22Rcpp_precious_preserveEP7SEXPRECE3fun"
